target datalayout = "e-m:e-p270:32:32-p271:32:32-p272:64:64-i64:64-i128:128-f80:128-n8:16:32:64-S128"
target triple = "x86_64-pc-linux-gnu"

%struct._value_string = type { i32, ptr }
%struct.expert_field = type { i32, i32 }
%struct._StringInfo = type { ptr, i32 }
%struct._SslSession = type { i32, i32, i16, i8, [32 x i8], i8, i8, i32, i32, i32, %struct._StringInfo, i8, i8, [8 x i8], [8 x i8], [16 x i8], %struct._address, i32, i32, ptr, ptr, ptr, i32, i8, i32, i32, ptr, ptr, i8, i8, i8, i8, i8, [2 x i64], [2 x i64] }
%struct._address = type { i32, i32, ptr, ptr }
%struct._packet_info = type { ptr, ptr, i32, i32, %struct.nstime_t, %struct.nstime_t, %struct.nstime_t, i8, ptr, ptr, ptr, ptr, %struct._address, %struct._address, %struct._address, %struct._address, %struct._address, %struct._address, i32, ptr, i8, [3 x i8], %struct.anon, i32, i32, i32, i32, ptr, i8, ptr, ptr, i16, i16, i32, i32, i16, i32, i32, ptr, ptr, ptr, i8, i8, i16, i16, i16, i32, i16, i16, ptr, ptr, ptr, ptr, ptr, i32, i32 }
%struct.nstime_t = type { i64, i32 }
%struct.anon = type { i8, [3 x i8] }

@.str.26 = private unnamed_addr constant [1 x i8] zeroinitializer, align 1
@hf_tls_heartbeat_message = internal global i32 0, align 4
@hf_tls_heartbeat_message_type = internal global i32 0, align 4
@tls_heartbeat_type = external constant [0 x %struct._value_string], align 8
@hf_tls_heartbeat_message_payload_length = internal global i32 0, align 4
@hf_tls_heartbeat_message_payload = internal global i32 0, align 4
@hf_tls_heartbeat_message_padding = internal global i32 0, align 4
@ett_tls_heartbeat = internal global i32 0, align 4
@ei_ssl3_heartbeat_payload_length = internal global %struct.expert_field zeroinitializer, align 4
@ssl_version_short_names = external constant [0 x %struct._value_string], align 8
@.str.982 = private unnamed_addr constant [4 x i8] c"SSL\00", align 1
@.str.997 = private unnamed_addr constant [2 x i8] c"s\00", align 1
@.str.1053 = private unnamed_addr constant [13 x i8] c"Heartbeat %s\00", align 1
@.str.1054 = private unnamed_addr constant [20 x i8] c"Encrypted Heartbeat\00", align 1
@.str.1055 = private unnamed_addr constant [30 x i8] c"%s Record Layer: Heartbeat %s\00", align 1
@.str.1056 = private unnamed_addr constant [38 x i8] c"Invalid heartbeat payload length (%d)\00", align 1
@.str.1057 = private unnamed_addr constant [39 x i8] c" (invalid, using %u to decode payload)\00", align 1
@.str.1058 = private unnamed_addr constant [20 x i8] c"Payload (%u byte%s)\00", align 1
@.str.1059 = private unnamed_addr constant [29 x i8] c"Padding and HMAC (%u byte%s)\00", align 1
@.str.1060 = private unnamed_addr constant [37 x i8] c"%s Record Layer: Encrypted Heartbeat\00", align 1
@.str.1061 = private unnamed_addr constant [28 x i8] c"Encrypted Heartbeat Message\00", align 1

; Function Attrs: null_pointer_is_valid sspstrong uwtable
define internal void @dissect_ssl3_heartbeat(ptr noundef %0, ptr noundef %1, ptr noundef %2, i32 noundef %3, ptr noundef %4, i32 noundef %5, i1 noundef zeroext %6) #0 {
  %8 = alloca ptr, align 8
  %9 = alloca ptr, align 8
  %10 = alloca ptr, align 8
  %11 = alloca i32, align 4
  %12 = alloca ptr, align 8
  %13 = alloca i32, align 4
  %14 = alloca i8, align 1
  %15 = alloca ptr, align 8
  %16 = alloca ptr, align 8
  %17 = alloca ptr, align 8
  %18 = alloca i8, align 1
  %19 = alloca i16, align 2
  %20 = alloca i16, align 2
  store ptr %0, ptr %8, align 8
  store ptr %1, ptr %9, align 8
  store ptr %2, ptr %10, align 8
  store i32 %3, ptr %11, align 4
  store ptr %4, ptr %12, align 8
  store i32 %5, ptr %13, align 4
  %21 = zext i1 %6 to i8
  store i8 %21, ptr %14, align 1
  call void @llvm.lifetime.start.p0(i64 8, ptr %15) #18
  call void @llvm.lifetime.start.p0(i64 8, ptr %16) #18
  call void @llvm.lifetime.start.p0(i64 8, ptr %17) #18
  call void @llvm.lifetime.start.p0(i64 1, ptr %18) #18
  call void @llvm.lifetime.start.p0(i64 2, ptr %19) #18
  call void @llvm.lifetime.start.p0(i64 2, ptr %20) #18
  store ptr null, ptr %16, align 8
  %22 = load ptr, ptr %10, align 8
  %23 = icmp ne ptr %22, null
  br i1 %23, label %24, label %34

24:                                               ; preds = %7
  %25 = load ptr, ptr %10, align 8
  %26 = load i32, ptr @hf_tls_heartbeat_message, align 4
  %27 = load ptr, ptr %8, align 8
  %28 = load i32, ptr %11, align 4
  %29 = load i32, ptr %13, align 4
  %30 = call ptr @proto_tree_add_item(ptr noundef %25, i32 noundef %26, ptr noundef %27, i32 noundef %28, i32 noundef %29, i32 noundef 0)
  store ptr %30, ptr %15, align 8
  %31 = load ptr, ptr %15, align 8
  %32 = load i32, ptr @ett_tls_heartbeat, align 4
  %33 = call ptr @proto_item_add_subtree(ptr noundef %31, i32 noundef %32)
  store ptr %33, ptr %16, align 8
  br label %34

34:                                               ; preds = %24, %7
  %35 = load ptr, ptr %8, align 8
  %36 = load i32, ptr %11, align 4
  %37 = call zeroext i8 @tvb_get_uint8(ptr noundef %35, i32 noundef %36)
  store i8 %37, ptr %18, align 1
  %38 = load i8, ptr %18, align 1
  %39 = zext i8 %38 to i32
  %40 = call ptr @try_val_to_str(i32 noundef %39, ptr noundef @tls_heartbeat_type)
  store ptr %40, ptr %17, align 8
  %41 = load ptr, ptr %8, align 8
  %42 = load i32, ptr %11, align 4
  %43 = add i32 %42, 1
  %44 = call zeroext i16 @tvb_get_ntohs(ptr noundef %41, i32 noundef %43)
  store i16 %44, ptr %19, align 2
  %45 = load i32, ptr %13, align 4
  %46 = sub i32 %45, 3
  %47 = load i16, ptr %19, align 2
  %48 = zext i16 %47 to i32
  %49 = sub i32 %46, %48
  %50 = trunc i32 %49 to i16
  store i16 %50, ptr %20, align 2
  %51 = load i32, ptr %13, align 4
  %52 = icmp ule i32 %51, 19
  br i1 %52, label %60, label %53

53:                                               ; preds = %34
  %54 = load i16, ptr %19, align 2
  %55 = zext i16 %54 to i32
  %56 = add i32 3, %55
  %57 = add i32 %56, 16
  %58 = load i32, ptr %13, align 4
  %59 = icmp ule i32 %57, %58
  br i1 %59, label %60, label %61

60:                                               ; preds = %53, %34
  store i8 1, ptr %14, align 1
  br label %61

61:                                               ; preds = %60, %53
  %62 = load ptr, ptr %17, align 8
  %63 = icmp ne ptr %62, null
  br i1 %63, label %64, label %72

64:                                               ; preds = %61
  %65 = load i8, ptr %14, align 1, !range !6, !noundef !7
  %66 = trunc i8 %65 to i1
  br i1 %66, label %67, label %72

67:                                               ; preds = %64
  %68 = load ptr, ptr %9, align 8
  %69 = getelementptr inbounds nuw %struct._packet_info, ptr %68, i32 0, i32 1
  %70 = load ptr, ptr %69, align 8
  %71 = load ptr, ptr %17, align 8
  call void (ptr, i32, ptr, ptr, ...) @col_append_sep_fstr(ptr noundef %70, i32 noundef 25, ptr noundef null, ptr noundef @.str.1053, ptr noundef %71)
  br label %76

72:                                               ; preds = %64, %61
  %73 = load ptr, ptr %9, align 8
  %74 = getelementptr inbounds nuw %struct._packet_info, ptr %73, i32 0, i32 1
  %75 = load ptr, ptr %74, align 8
  call void @col_append_sep_str(ptr noundef %75, i32 noundef 25, ptr noundef null, ptr noundef @.str.1054)
  br label %76

76:                                               ; preds = %72, %67
  %77 = load ptr, ptr %17, align 8
  %78 = icmp ne ptr %77, null
  br i1 %78, label %79, label %159

79:                                               ; preds = %76
  %80 = load i8, ptr %14, align 1, !range !6, !noundef !7
  %81 = trunc i8 %80 to i1
  br i1 %81, label %82, label %159

82:                                               ; preds = %79
  %83 = load ptr, ptr %10, align 8
  %84 = load ptr, ptr %12, align 8
  %85 = getelementptr inbounds nuw %struct._SslSession, ptr %84, i32 0, i32 2
  %86 = load i16, ptr %85, align 8
  %87 = zext i16 %86 to i32
  %88 = call ptr @val_to_str_const(i32 noundef %87, ptr noundef @ssl_version_short_names, ptr noundef @.str.982)
  %89 = load ptr, ptr %17, align 8
  call void (ptr, ptr, ...) @proto_item_set_text(ptr noundef %83, ptr noundef @.str.1055, ptr noundef %88, ptr noundef %89)
  %90 = load ptr, ptr %16, align 8
  %91 = load i32, ptr @hf_tls_heartbeat_message_type, align 4
  %92 = load ptr, ptr %8, align 8
  %93 = load i32, ptr %11, align 4
  %94 = call ptr @proto_tree_add_item(ptr noundef %90, i32 noundef %91, ptr noundef %92, i32 noundef %93, i32 noundef 1, i32 noundef 0)
  %95 = load i32, ptr %11, align 4
  %96 = add i32 %95, 1
  store i32 %96, ptr %11, align 4
  %97 = load ptr, ptr %16, align 8
  %98 = load i32, ptr @hf_tls_heartbeat_message_payload_length, align 4
  %99 = load ptr, ptr %8, align 8
  %100 = load i32, ptr %11, align 4
  %101 = load i16, ptr %19, align 2
  %102 = zext i16 %101 to i32
  %103 = call ptr @proto_tree_add_uint(ptr noundef %97, i32 noundef %98, ptr noundef %99, i32 noundef %100, i32 noundef 2, i32 noundef %102)
  store ptr %103, ptr %15, align 8
  %104 = load i32, ptr %11, align 4
  %105 = add i32 %104, 2
  store i32 %105, ptr %11, align 4
  %106 = load i16, ptr %19, align 2
  %107 = zext i16 %106 to i32
  %108 = add i32 3, %107
  %109 = add i32 %108, 16
  %110 = load i32, ptr %13, align 4
  %111 = icmp ugt i32 %109, %110
  br i1 %111, label %112, label %124

112:                                              ; preds = %82
  %113 = load ptr, ptr %9, align 8
  %114 = load ptr, ptr %15, align 8
  %115 = load i16, ptr %19, align 2
  %116 = zext i16 %115 to i32
  %117 = call ptr (ptr, ptr, ptr, ptr, ...) @expert_add_info_format(ptr noundef %113, ptr noundef %114, ptr noundef @ei_ssl3_heartbeat_payload_length, ptr noundef @.str.1056, i32 noundef %116)
  %118 = load i32, ptr %13, align 4
  %119 = sub i32 %118, 3
  %120 = trunc i32 %119 to i16
  store i16 %120, ptr %19, align 2
  store i16 0, ptr %20, align 2
  %121 = load ptr, ptr %15, align 8
  %122 = load i16, ptr %19, align 2
  %123 = zext i16 %122 to i32
  call void (ptr, ptr, ...) @proto_item_append_text(ptr noundef %121, ptr noundef @.str.1057, i32 noundef %123)
  br label %124

124:                                              ; preds = %112, %82
  %125 = load ptr, ptr %16, align 8
  %126 = load i32, ptr @hf_tls_heartbeat_message_payload, align 4
  %127 = load ptr, ptr %8, align 8
  %128 = load i32, ptr %11, align 4
  %129 = load i16, ptr %19, align 2
  %130 = zext i16 %129 to i32
  %131 = load i16, ptr %19, align 2
  %132 = zext i16 %131 to i32
  %133 = load i16, ptr %19, align 2
  %134 = zext i16 %133 to i32
  %135 = icmp eq i32 %134, 1
  %136 = select i1 %135, ptr @.str.26, ptr @.str.997
  %137 = call ptr (ptr, i32, ptr, i32, i32, ptr, ptr, ...) @proto_tree_add_bytes_format(ptr noundef %125, i32 noundef %126, ptr noundef %127, i32 noundef %128, i32 noundef %130, ptr noundef null, ptr noundef @.str.1058, i32 noundef %132, ptr noundef %136)
  %138 = load i16, ptr %19, align 2
  %139 = zext i16 %138 to i32
  %140 = load i32, ptr %11, align 4
  %141 = add i32 %140, %139
  store i32 %141, ptr %11, align 4
  %142 = load i16, ptr %20, align 2
  %143 = icmp ne i16 %142, 0
  br i1 %143, label %144, label %158

144:                                              ; preds = %124
  %145 = load ptr, ptr %16, align 8
  %146 = load i32, ptr @hf_tls_heartbeat_message_padding, align 4
  %147 = load ptr, ptr %8, align 8
  %148 = load i32, ptr %11, align 4
  %149 = load i16, ptr %20, align 2
  %150 = zext i16 %149 to i32
  %151 = load i16, ptr %20, align 2
  %152 = zext i16 %151 to i32
  %153 = load i16, ptr %20, align 2
  %154 = zext i16 %153 to i32
  %155 = icmp eq i32 %154, 1
  %156 = select i1 %155, ptr @.str.26, ptr @.str.997
  %157 = call ptr (ptr, i32, ptr, i32, i32, ptr, ptr, ...) @proto_tree_add_bytes_format(ptr noundef %145, i32 noundef %146, ptr noundef %147, i32 noundef %148, i32 noundef %150, ptr noundef null, ptr noundef @.str.1059, i32 noundef %152, ptr noundef %156)
  br label %158

158:                                              ; preds = %144, %124
  br label %167

159:                                              ; preds = %79, %76
  %160 = load ptr, ptr %10, align 8
  %161 = load ptr, ptr %12, align 8
  %162 = getelementptr inbounds nuw %struct._SslSession, ptr %161, i32 0, i32 2
  %163 = load i16, ptr %162, align 8
  %164 = zext i16 %163 to i32
  %165 = call ptr @val_to_str_const(i32 noundef %164, ptr noundef @ssl_version_short_names, ptr noundef @.str.982)
  call void (ptr, ptr, ...) @proto_item_set_text(ptr noundef %160, ptr noundef @.str.1060, ptr noundef %165)
  %166 = load ptr, ptr %16, align 8
  call void (ptr, ptr, ...) @proto_item_set_text(ptr noundef %166, ptr noundef @.str.1061)
  br label %167

167:                                              ; preds = %159, %158
  call void @llvm.lifetime.end.p0(i64 2, ptr %20) #18
  call void @llvm.lifetime.end.p0(i64 2, ptr %19) #18
  call void @llvm.lifetime.end.p0(i64 1, ptr %18) #18
  call void @llvm.lifetime.end.p0(i64 8, ptr %17) #18
  call void @llvm.lifetime.end.p0(i64 8, ptr %16) #18
  call void @llvm.lifetime.end.p0(i64 8, ptr %15) #18
  ret void
}