; Function Attrs: null_pointer_is_valid sspstrong uwtable
define internal fastcc void @dissect_ssl3_heartbeat(ptr noundef %0, ptr noundef %1, ptr noundef %2, i32 noundef %3, ptr noundef readonly captures(none) %4, i32 noundef %5, i1 noundef zeroext %6) unnamed_addr #0 {
  %.not = icmp eq ptr %2, null
  br i1 %.not, label %13, label %8

8:                                                ; preds = %7
  %9 = load i32, ptr @hf_tls_heartbeat_message, align 4
  %10 = tail call ptr @proto_tree_add_item(ptr noundef nonnull %2, i32 noundef %9, ptr noundef %0, i32 noundef %3, i32 noundef %5, i32 noundef 0)
  %11 = load i32, ptr @ett_tls_heartbeat, align 4
  %12 = tail call ptr @proto_item_add_subtree(ptr noundef %10, i32 noundef %11)
  br label %13

13:                                               ; preds = %8, %7
  %.062 = phi ptr [ %12, %8 ], [ null, %7 ]
  %14 = tail call zeroext i8 @tvb_get_uint8(ptr noundef %0, i32 noundef %3)
  %15 = zext i8 %14 to i32
  %16 = tail call ptr @try_val_to_str(i32 noundef %15, ptr noundef nonnull @tls_heartbeat_type)
  %17 = add i32 %3, 1
  %18 = tail call zeroext i16 @tvb_get_ntohs(ptr noundef %0, i32 noundef %17)
  %19 = add i32 %5, -3
  %20 = zext i16 %18 to i32
  %21 = trunc i32 %19 to i16
  %22 = icmp ult i32 %5, 20
  %23 = add nuw nsw i32 %20, 19
  %.not66 = icmp ule i32 %23, %5
  %or.cond.not = select i1 %22, i1 true, i1 %.not66
  %spec.select = or i1 %6, %or.cond.not
  %.not67 = icmp ne ptr %16, null
  %brmerge.not = and i1 %.not67, %spec.select
  br i1 %brmerge.not, label %24, label %52

24:                                               ; preds = %13
  %25 = sub i16 %21, %18
  %26 = getelementptr inbounds nuw i8, ptr %1, i64 8
  %27 = load ptr, ptr %26, align 8
  tail call void (ptr, i32, ptr, ptr, ...) @col_append_sep_fstr(ptr noundef %27, i32 noundef 25, ptr noundef null, ptr noundef nonnull @.str.1053, ptr noundef nonnull %16)
  %28 = getelementptr inbounds nuw i8, ptr %4, i64 8
  %29 = load i16, ptr %28, align 8
  %30 = zext i16 %29 to i32
  %31 = tail call ptr @val_to_str_const(i32 noundef %30, ptr noundef nonnull @ssl_version_short_names, ptr noundef nonnull @.str.982)
  tail call void (ptr, ptr, ...) @proto_item_set_text(ptr noundef %2, ptr noundef nonnull @.str.1055, ptr noundef %31, ptr noundef nonnull %16)
  %32 = load i32, ptr @hf_tls_heartbeat_message_type, align 4
  %33 = tail call ptr @proto_tree_add_item(ptr noundef %.062, i32 noundef %32, ptr noundef %0, i32 noundef %3, i32 noundef 1, i32 noundef 0)
  %34 = load i32, ptr @hf_tls_heartbeat_message_payload_length, align 4
  %35 = tail call ptr @proto_tree_add_uint(ptr noundef %.062, i32 noundef %34, ptr noundef %0, i32 noundef %17, i32 noundef 2, i32 noundef %20)
  %36 = add i32 %3, 3
  br i1 %.not66, label %40, label %37

37:                                               ; preds = %24
  %38 = tail call ptr (ptr, ptr, ptr, ptr, ...) @expert_add_info_format(ptr noundef %1, ptr noundef %35, ptr noundef nonnull @ei_ssl3_heartbeat_payload_length, ptr noundef nonnull @.str.1056, i32 noundef %20)
  %39 = and i32 %19, 65535
  tail call void (ptr, ptr, ...) @proto_item_append_text(ptr noundef %35, ptr noundef nonnull @.str.1057, i32 noundef %39)
  %.pre = and i32 %19, 65535
  br label %40

40:                                               ; preds = %37, %24
  %.pre-phi = phi i32 [ %.pre, %37 ], [ %20, %24 ]
  %.060 = phi i16 [ %21, %37 ], [ %18, %24 ]
  %.0 = phi i16 [ 0, %37 ], [ %25, %24 ]
  %41 = load i32, ptr @hf_tls_heartbeat_message_payload, align 4
  %42 = icmp eq i16 %.060, 1
  %43 = select i1 %42, ptr @.str.26, ptr @.str.997
  %44 = tail call ptr (ptr, i32, ptr, i32, i32, ptr, ptr, ...) @proto_tree_add_bytes_format(ptr noundef %.062, i32 noundef %41, ptr noundef %0, i32 noundef %36, i32 noundef %.pre-phi, ptr noundef null, ptr noundef nonnull @.str.1058, i32 noundef %.pre-phi, ptr noundef nonnull %43)
  %.not68 = icmp eq i16 %.0, 0
  br i1 %.not68, label %59, label %45

45:                                               ; preds = %40
  %46 = add i32 %36, %.pre-phi
  %47 = load i32, ptr @hf_tls_heartbeat_message_padding, align 4
  %48 = zext i16 %.0 to i32
  %49 = icmp eq i16 %.0, 1
  %50 = select i1 %49, ptr @.str.26, ptr @.str.997
  %51 = tail call ptr (ptr, i32, ptr, i32, i32, ptr, ptr, ...) @proto_tree_add_bytes_format(ptr noundef %.062, i32 noundef %47, ptr noundef %0, i32 noundef %46, i32 noundef %48, ptr noundef null, ptr noundef nonnull @.str.1059, i32 noundef %48, ptr noundef nonnull %50)
  br label %59

52:                                               ; preds = %13
  %53 = getelementptr inbounds nuw i8, ptr %1, i64 8
  %54 = load ptr, ptr %53, align 8
  tail call void @col_append_sep_str(ptr noundef %54, i32 noundef 25, ptr noundef null, ptr noundef nonnull @.str.1054)
  %55 = getelementptr inbounds nuw i8, ptr %4, i64 8
  %56 = load i16, ptr %55, align 8
  %57 = zext i16 %56 to i32
  %58 = tail call ptr @val_to_str_const(i32 noundef %57, ptr noundef nonnull @ssl_version_short_names, ptr noundef nonnull @.str.982)
  tail call void (ptr, ptr, ...) @proto_item_set_text(ptr noundef %2, ptr noundef nonnull @.str.1060, ptr noundef %58)
  tail call void (ptr, ptr, ...) @proto_item_set_text(ptr noundef %.062, ptr noundef nonnull @.str.1061)
  br label %59

59:                                               ; preds = %40, %45, %52
  ret void
}